#include <math.h>
#include <stdio.h>
#include <stdlib.h>
#include <string.h>
#include <iostream>
using namespace std;

int main()
{
    int a,b,c,d,e;
    int m[6];
    for(a=1;a<=5;a++){
        for(b=1;b<=5;b++){
           for(c=1;c<5;c++){
                for(d=1;d<=5;d++){              
                    for(e=1;e<=5;e++){
                                      }}}}}
        cout<<"5 2 1 3 4";

                        
                         
    
    return 0;
}
                        
                    
